target datalayout = "e-m:e-p270:32:32-p271:32:32-p272:64:64-i64:64-i128:128-f80:128-n8:16:32:64-S128"
target triple = "x86_64-unknown-linux-gnu"

%struct.notifier_block = type { ptr, ptr, i32 }

@xfrm_dev_notifier = internal global %struct.notifier_block { ptr @xfrm_dev_event, ptr null, i32 0 }, align 8

; Function Attrs: cold fn_ret_thunk_extern nounwind null_pointer_is_valid optsize
define dso_local void @xfrm_dev_init() local_unnamed_addr #0 section ".init.text" align 16 {
  %1 = tail call i32 @register_netdevice_notifier(ptr noundef nonnull @xfrm_dev_notifier) #3
  ret void
}

; Function Attrs: null_pointer_is_valid
declare dso_local i32 @register_netdevice_notifier(ptr noundef) local_unnamed_addr #1

; Function Attrs: fn_ret_thunk_extern nounwind null_pointer_is_valid
define internal i32 @xfrm_dev_event(ptr nocapture readnone %0, i64 noundef %1, ptr nocapture noundef readonly %2) #2 align 16 {
  %4 = load ptr, ptr %2, align 8
  switch i64 %1, label %28 [
    i64 5, label %5
    i64 12, label %11
    i64 2, label %17
    i64 6, label %17
  ]

5:                                                ; preds = %3
  %6 = getelementptr inbounds i8, ptr %4, i64 176
  %7 = load i64, ptr %6, align 8
  %8 = and i64 %7, 3377699720527872
  %9 = icmp eq i64 %8, 0
  %10 = select i1 %9, i32 0, i32 32770
  br label %28

11:                                               ; preds = %3
  %12 = getelementptr inbounds i8, ptr %4, i64 176
  %13 = load i64, ptr %12, align 8
  %14 = and i64 %13, 3377699720527872
  %15 = icmp eq i64 %14, 0
  %16 = select i1 %15, i32 0, i32 32770
  br label %28

17:                                               ; preds = %3, %3
  %18 = getelementptr inbounds i8, ptr %4, i64 176
  %19 = load i64, ptr %18, align 8
  %20 = and i64 %19, 1125899906842624
  %21 = icmp eq i64 %20, 0
  br i1 %21, label %28, label %22

22:                                               ; preds = %17
  %23 = getelementptr inbounds i8, ptr %4, i64 272
  %24 = load ptr, ptr %23, align 8
  %25 = tail call i32 @xfrm_dev_state_flush(ptr noundef %24, ptr noundef %4, i1 noundef zeroext true) #3
  %26 = load ptr, ptr %23, align 8
  %27 = tail call i32 @xfrm_dev_policy_flush(ptr noundef %26, ptr noundef %4, i1 noundef zeroext true) #3
  br label %28

28:                                               ; preds = %22, %17, %11, %5, %3
  %29 = phi i32 [ %16, %11 ], [ %10, %5 ], [ 0, %3 ], [ 0, %17 ], [ 0, %22 ]
  ret i32 %29
}

; Function Attrs: null_pointer_is_valid
declare dso_local i32 @xfrm_dev_state_flush(ptr noundef, ptr noundef, i1 noundef zeroext) local_unnamed_addr #1

; Function Attrs: null_pointer_is_valid
declare dso_local i32 @xfrm_dev_policy_flush(ptr noundef, ptr noundef, i1 noundef zeroext) local_unnamed_addr #1


!llvm.module.flags = !{!0, !1, !2, !3, !4}

!0 = !{i32 1, !"wchar_size", i32 2}
!1 = !{i32 8, !"cf-protection-branch", i32 1}
!2 = !{i32 4, !"function_return_thunk_extern", i32 1}
!3 = !{i32 4, !"indirect_branch_cs_prefix", i32 1}
!4 = !{i32 4, !"SkipRaxSetup", i32 1}
